; Function Attrs: mustprogress nofree norecurse nounwind willreturn uwtable
define void @_ZN2cv6detail8tracking24TrackerStateEstimatorSVM12estimateImplERKSt6vectorIS3_ISt4pairINS_3PtrINS1_18TrackerTargetStateEEEfESaIS8_EESaISA_EE(ptr dead_on_unwind noalias nocapture writable writeonly sret(%"struct.cv::Ptr.25") align 8 %0, ptr nocapture nonnull readnone align 8 %1, ptr nocapture noundef nonnull readonly align 8 dereferenceable(24) %2) unnamed_addr #12 align 2 personality ptr @__gxx_personality_v0 {
  %4 = getelementptr inbounds i8, ptr %2, i64 8
  %5 = load ptr, ptr %4, align 8
  %6 = getelementptr inbounds i8, ptr %5, i64 -16
  %7 = load ptr, ptr %6, align 8
  %8 = getelementptr inbounds i8, ptr %7, i64 -24
  %9 = load ptr, ptr %8, align 8
  store ptr %9, ptr %0, align 8
  %10 = getelementptr inbounds i8, ptr %0, i64 8
  %11 = getelementptr inbounds i8, ptr %7, i64 -16
  %12 = load ptr, ptr %11, align 8
  store ptr %12, ptr %10, align 8
  %.not.i.i.i.i = icmp eq ptr %12, null
  br i1 %.not.i.i.i.i, label %_ZN2cv3PtrINS_6detail8tracking18TrackerTargetStateEEC2ERKS4_.exit, label %13

13:                                               ; preds = %3
  %14 = getelementptr inbounds i8, ptr %12, i64 8
  %15 = load i8, ptr @__libc_single_threaded, align 1
  %.not.i.i.i.i.i = icmp eq i8 %15, 0
  br i1 %.not.i.i.i.i.i, label %19, label %16

16:                                               ; preds = %13
  %17 = load i32, ptr %14, align 4
  %18 = add nsw i32 %17, 1
  store i32 %18, ptr %14, align 4
  br label %_ZN2cv3PtrINS_6detail8tracking18TrackerTargetStateEEC2ERKS4_.exit

19:                                               ; preds = %13
  %20 = atomicrmw volatile add ptr %14, i32 1 acq_rel, align 4
  br label %_ZN2cv3PtrINS_6detail8tracking18TrackerTargetStateEEC2ERKS4_.exit

_ZN2cv3PtrINS_6detail8tracking18TrackerTargetStateEEC2ERKS4_.exit: ; preds = %3, %16, %19
  ret void
}